target datalayout = "e-m:e-p270:32:32-p271:32:32-p272:64:64-i64:64-i128:128-f80:128-n8:16:32:64-S128"
target triple = "x86_64-pc-linux-gnu"

%struct.Vec_Int_t_ = type { i32, i32, ptr }
%struct.Vec_Wec_t_ = type { i32, i32, ptr }

; Function Attrs: inlinehint nounwind uwtable
define internal ptr @Vec_WecEntry(ptr noundef %0, i32 noundef %1) #3 {
  %3 = alloca ptr, align 8
  %4 = alloca i32, align 4
  store ptr %0, ptr %3, align 8, !tbaa !102
  store i32 %1, ptr %4, align 4, !tbaa !10
  %5 = load ptr, ptr %3, align 8, !tbaa !102
  %6 = getelementptr inbounds nuw %struct.Vec_Wec_t_, ptr %5, i32 0, i32 2
  %7 = load ptr, ptr %6, align 8, !tbaa !111
  %8 = load i32, ptr %4, align 4, !tbaa !10
  %9 = sext i32 %8 to i64
  %10 = getelementptr inbounds %struct.Vec_Int_t_, ptr %7, i64 %9
  ret ptr %10
}

; Function Attrs: inlinehint nounwind uwtable
define internal i32 @Vec_IntEntry(ptr noundef %0, i32 noundef %1) #3 {
  %3 = alloca ptr, align 8
  %4 = alloca i32, align 4
  store ptr %0, ptr %3, align 8, !tbaa !44
  store i32 %1, ptr %4, align 4, !tbaa !10
  %5 = load ptr, ptr %3, align 8, !tbaa !44
  %6 = getelementptr inbounds nuw %struct.Vec_Int_t_, ptr %5, i32 0, i32 2
  %7 = load ptr, ptr %6, align 8, !tbaa !52
  %8 = load i32, ptr %4, align 4, !tbaa !10
  %9 = sext i32 %8 to i64
  %10 = getelementptr inbounds i32, ptr %7, i64 %9
  %11 = load i32, ptr %10, align 4, !tbaa !10
  ret i32 %11
}

; Function Attrs: inlinehint nounwind uwtable
define internal i32 @Vec_IntSize(ptr noundef %0) #3 {
  %2 = alloca ptr, align 8
  store ptr %0, ptr %2, align 8, !tbaa !44
  %3 = load ptr, ptr %2, align 8, !tbaa !44
  %4 = getelementptr inbounds nuw %struct.Vec_Int_t_, ptr %3, i32 0, i32 1
  %5 = load i32, ptr %4, align 4, !tbaa !50
  ret i32 %5
}

; Function Attrs: inlinehint nounwind uwtable
define internal void @Vec_IntClear(ptr noundef %0) #3 {
  %2 = alloca ptr, align 8
  store ptr %0, ptr %2, align 8, !tbaa !44
  %3 = load ptr, ptr %2, align 8, !tbaa !44
  %4 = getelementptr inbounds nuw %struct.Vec_Int_t_, ptr %3, i32 0, i32 1
  store i32 0, ptr %4, align 4, !tbaa !50
  ret void
}

; Function Attrs: nounwind uwtable
define void @Abc_NtkFinLocalSetup(ptr noundef %0, ptr noundef %1, ptr noundef %2, ptr noundef %3) #0 {
  %5 = alloca ptr, align 8
  %6 = alloca ptr, align 8
  %7 = alloca ptr, align 8
  %8 = alloca ptr, align 8
  %9 = alloca i32, align 4
  %10 = alloca i32, align 4
  %11 = alloca i32, align 4
  %12 = alloca ptr, align 8
  store ptr %0, ptr %5, align 8, !tbaa !44
  store ptr %1, ptr %6, align 8, !tbaa !44
  store ptr %2, ptr %7, align 8, !tbaa !102
  store ptr %3, ptr %8, align 8, !tbaa !44
  call void @llvm.lifetime.start.p0(i64 4, ptr %9) #14
  call void @llvm.lifetime.start.p0(i64 4, ptr %10) #14
  %13 = load ptr, ptr %8, align 8, !tbaa !44
  call void @Vec_IntClear(ptr noundef %13)
  store i32 0, ptr %9, align 4, !tbaa !10
  br label %14

14:                                               ; preds = %39, %4
  %15 = load i32, ptr %9, align 4, !tbaa !10
  %16 = load ptr, ptr %6, align 8, !tbaa !44
  %17 = call i32 @Vec_IntSize(ptr noundef %16)
  %18 = icmp slt i32 %15, %17
  br i1 %18, label %19, label %23

19:                                               ; preds = %14
  %20 = load ptr, ptr %6, align 8, !tbaa !44
  %21 = load i32, ptr %9, align 4, !tbaa !10
  %22 = call i32 @Vec_IntEntry(ptr noundef %20, i32 noundef %21)
  store i32 %22, ptr %10, align 4, !tbaa !10
  br label %23

23:                                               ; preds = %19, %14
  %24 = phi i1 [ false, %14 ], [ true, %19 ]
  br i1 %24, label %25, label %42

25:                                               ; preds = %23
  call void @llvm.lifetime.start.p0(i64 4, ptr %11) #14
  %26 = load ptr, ptr %5, align 8, !tbaa !44
  %27 = load i32, ptr %10, align 4, !tbaa !10
  %28 = mul nsw i32 2, %27
  %29 = call i32 @Vec_IntEntry(ptr noundef %26, i32 noundef %28)
  store i32 %29, ptr %11, align 4, !tbaa !10
  call void @llvm.lifetime.start.p0(i64 8, ptr %12) #14
  %30 = load ptr, ptr %7, align 8, !tbaa !102
  %31 = load i32, ptr %11, align 4, !tbaa !10
  %32 = call ptr @Vec_WecEntry(ptr noundef %30, i32 noundef %31)
  store ptr %32, ptr %12, align 8, !tbaa !44
  %33 = load ptr, ptr %12, align 8, !tbaa !44
  %34 = load i32, ptr %10, align 4, !tbaa !10
  %35 = load i32, ptr %9, align 4, !tbaa !10
  call void @Vec_IntPushTwo(ptr noundef %33, i32 noundef %34, i32 noundef %35)
  %36 = load ptr, ptr %8, align 8, !tbaa !44
  %37 = load i32, ptr %10, align 4, !tbaa !10
  %38 = load i32, ptr %9, align 4, !tbaa !10
  call void @Vec_IntPushTwo(ptr noundef %36, i32 noundef %37, i32 noundef %38)
  call void @llvm.lifetime.end.p0(i64 8, ptr %12) #14
  call void @llvm.lifetime.end.p0(i64 4, ptr %11) #14
  br label %39

39:                                               ; preds = %25
  %40 = load i32, ptr %9, align 4, !tbaa !10
  %41 = add nsw i32 %40, 1
  store i32 %41, ptr %9, align 4, !tbaa !10
  br label %14, !llvm.loop !202

42:                                               ; preds = %23
  call void @llvm.lifetime.end.p0(i64 4, ptr %10) #14
  call void @llvm.lifetime.end.p0(i64 4, ptr %9) #14
  ret void
}