; Function Attrs: nounwind uwtable
define void @Abc_NtkFinLocalSetup(ptr noundef readonly captures(none) %0, ptr noundef readonly captures(none) %1, ptr noundef readonly captures(none) %2, ptr noundef captures(none) initializes((4, 8)) %3) local_unnamed_addr #0 {
  %5 = getelementptr inbounds nuw i8, ptr %3, i64 4
  store i32 0, ptr %5, align 4, !tbaa !37
  %6 = getelementptr i8, ptr %1, i64 4
  %.val1618 = load i32, ptr %6, align 4, !tbaa !37
  %7 = icmp sgt i32 %.val1618, 0
  br i1 %7, label %.lr.ph, label %.critedge

.lr.ph:                                           ; preds = %4
  %8 = getelementptr i8, ptr %1, i64 8
  %9 = getelementptr i8, ptr %0, i64 8
  %10 = getelementptr i8, ptr %2, i64 8
  br label %11

11:                                               ; preds = %.lr.ph, %11
  %indvars.iv = phi i64 [ 0, %.lr.ph ], [ %indvars.iv.next, %11 ]
  %.val15 = load ptr, ptr %8, align 8, !tbaa !36
  %12 = getelementptr inbounds nuw i32, ptr %.val15, i64 %indvars.iv
  %13 = load i32, ptr %12, align 4, !tbaa !34
  %14 = shl nsw i32 %13, 1
  %.val = load ptr, ptr %9, align 8, !tbaa !36
  %15 = sext i32 %14 to i64
  %16 = getelementptr inbounds i32, ptr %.val, i64 %15
  %17 = load i32, ptr %16, align 4, !tbaa !34
  %.val17 = load ptr, ptr %10, align 8, !tbaa !90
  %18 = sext i32 %17 to i64
  %19 = getelementptr inbounds %struct.Vec_Int_t_, ptr %.val17, i64 %18
  %20 = trunc nuw nsw i64 %indvars.iv to i32
  tail call fastcc void @Vec_IntPushTwo(ptr noundef %19, i32 noundef %13, i32 noundef %20)
  tail call fastcc void @Vec_IntPushTwo(ptr noundef %3, i32 noundef %13, i32 noundef %20)
  %indvars.iv.next = add nuw nsw i64 %indvars.iv, 1
  %.val16 = load i32, ptr %6, align 4, !tbaa !37
  %21 = sext i32 %.val16 to i64
  %22 = icmp slt i64 %indvars.iv.next, %21
  br i1 %22, label %11, label %.critedge, !llvm.loop !174

.critedge:                                        ; preds = %11, %4
  ret void
}